; ModuleID = '9/62.c'
source_filename = "9/62.c"
target datalayout = "e-m:e-p270:32:32-p271:32:32-p272:64:64-i64:64-f80:128-n8:16:32:64-S128"
target triple = "x86_64-pc-linux-gnu"

%struct.bingren = type { [20 x i8], i32 }
%struct.laoren = type { [20 x i8], i32 }

@bing = dso_local global [100 x %struct.bingren] zeroinitializer, align 16
@lao = dso_local global [100 x %struct.laoren] zeroinitializer, align 16
@.str = private unnamed_addr constant [3 x i8] c"%d\00", align 1
@.str.1 = private unnamed_addr constant [3 x i8] c"%s\00", align 1
@.str.2 = private unnamed_addr constant [4 x i8] c"%s\0A\00", align 1

; Function Attrs: noinline nounwind uwtable
define dso_local void @main() #0 {
  %1 = alloca i32, align 4
  %2 = alloca i32, align 4
  %3 = alloca i32, align 4
  %4 = alloca i32, align 4
  %5 = alloca %struct.laoren, align 4
  store i32 0, i32* %3, align 4
  %6 = call i32 (i8*, ...) @__isoc99_scanf(i8* getelementptr inbounds ([3 x i8], [3 x i8]* @.str, i64 0, i64 0), i32* %1)
  store i32 0, i32* %2, align 4
  br label %7

7:                                                ; preds = %23, %0
  %8 = load i32, i32* %2, align 4
  %9 = load i32, i32* %1, align 4
  %10 = icmp slt i32 %8, %9
  br i1 %10, label %11, label %26

11:                                               ; preds = %7
  %12 = load i32, i32* %2, align 4
  %13 = sext i32 %12 to i64
  %14 = getelementptr inbounds [100 x %struct.bingren], [100 x %struct.bingren]* @bing, i64 0, i64 %13
  %15 = getelementptr inbounds %struct.bingren, %struct.bingren* %14, i32 0, i32 0
  %16 = getelementptr inbounds [20 x i8], [20 x i8]* %15, i64 0, i64 0
  %17 = call i32 (i8*, ...) @__isoc99_scanf(i8* getelementptr inbounds ([3 x i8], [3 x i8]* @.str.1, i64 0, i64 0), i8* %16)
  %18 = load i32, i32* %2, align 4
  %19 = sext i32 %18 to i64
  %20 = getelementptr inbounds [100 x %struct.bingren], [100 x %struct.bingren]* @bing, i64 0, i64 %19
  %21 = getelementptr inbounds %struct.bingren, %struct.bingren* %20, i32 0, i32 1
  %22 = call i32 (i8*, ...) @__isoc99_scanf(i8* getelementptr inbounds ([3 x i8], [3 x i8]* @.str, i64 0, i64 0), i32* %21)
  br label %23

23:                                               ; preds = %11
  %24 = load i32, i32* %2, align 4
  %25 = add nsw i32 %24, 1
  store i32 %25, i32* %2, align 4
  br label %7

26:                                               ; preds = %7
  store i32 0, i32* %2, align 4
  br label %27

27:                                               ; preds = %67, %26
  %28 = load i32, i32* %2, align 4
  %29 = load i32, i32* %1, align 4
  %30 = icmp slt i32 %28, %29
  br i1 %30, label %31, label %70

31:                                               ; preds = %27
  %32 = load i32, i32* %2, align 4
  %33 = sext i32 %32 to i64
  %34 = getelementptr inbounds [100 x %struct.bingren], [100 x %struct.bingren]* @bing, i64 0, i64 %33
  %35 = getelementptr inbounds %struct.bingren, %struct.bingren* %34, i32 0, i32 1
  %36 = load i32, i32* %35, align 4
  %37 = icmp sge i32 %36, 60
  br i1 %37, label %38, label %65

38:                                               ; preds = %31
  %39 = load i32, i32* %3, align 4
  %40 = sext i32 %39 to i64
  %41 = getelementptr inbounds [100 x %struct.laoren], [100 x %struct.laoren]* @lao, i64 0, i64 %40
  %42 = getelementptr inbounds %struct.laoren, %struct.laoren* %41, i32 0, i32 0
  %43 = getelementptr inbounds [20 x i8], [20 x i8]* %42, i64 0, i64 0
  %44 = load i32, i32* %2, align 4
  %45 = sext i32 %44 to i64
  %46 = getelementptr inbounds [100 x %struct.bingren], [100 x %struct.bingren]* @bing, i64 0, i64 %45
  %47 = getelementptr inbounds %struct.bingren, %struct.bingren* %46, i32 0, i32 0
  %48 = getelementptr inbounds [20 x i8], [20 x i8]* %47, i64 0, i64 0
  %49 = call i8* @strcpy(i8* %43, i8* %48) #4
  %50 = load i32, i32* %2, align 4
  %51 = sext i32 %50 to i64
  %52 = getelementptr inbounds [100 x %struct.bingren], [100 x %struct.bingren]* @bing, i64 0, i64 %51
  %53 = getelementptr inbounds %struct.bingren, %struct.bingren* %52, i32 0, i32 1
  %54 = load i32, i32* %53, align 4
  %55 = load i32, i32* %3, align 4
  %56 = sext i32 %55 to i64
  %57 = getelementptr inbounds [100 x %struct.laoren], [100 x %struct.laoren]* @lao, i64 0, i64 %56
  %58 = getelementptr inbounds %struct.laoren, %struct.laoren* %57, i32 0, i32 1
  store i32 %54, i32* %58, align 4
  %59 = load i32, i32* %2, align 4
  %60 = sext i32 %59 to i64
  %61 = getelementptr inbounds [100 x %struct.bingren], [100 x %struct.bingren]* @bing, i64 0, i64 %60
  %62 = getelementptr inbounds %struct.bingren, %struct.bingren* %61, i32 0, i32 1
  store i32 -1, i32* %62, align 4
  %63 = load i32, i32* %3, align 4
  %64 = add nsw i32 %63, 1
  store i32 %64, i32* %3, align 4
  br label %66

65:                                               ; preds = %31
  br label %67

66:                                               ; preds = %38
  br label %67

67:                                               ; preds = %66, %65
  %68 = load i32, i32* %2, align 4
  %69 = add nsw i32 %68, 1
  store i32 %69, i32* %2, align 4
  br label %27

70:                                               ; preds = %27
  store i32 0, i32* %4, align 4
  br label %71

71:                                               ; preds = %121, %70
  %72 = load i32, i32* %4, align 4
  %73 = load i32, i32* %3, align 4
  %74 = icmp slt i32 %72, %73
  br i1 %74, label %75, label %124

75:                                               ; preds = %71
  store i32 0, i32* %2, align 4
  br label %76

76:                                               ; preds = %117, %75
  %77 = load i32, i32* %2, align 4
  %78 = load i32, i32* %3, align 4
  %79 = load i32, i32* %4, align 4
  %80 = sub nsw i32 %78, %79
  %81 = icmp slt i32 %77, %80
  br i1 %81, label %82, label %120

82:                                               ; preds = %76
  %83 = load i32, i32* %2, align 4
  %84 = sext i32 %83 to i64
  %85 = getelementptr inbounds [100 x %struct.laoren], [100 x %struct.laoren]* @lao, i64 0, i64 %84
  %86 = getelementptr inbounds %struct.laoren, %struct.laoren* %85, i32 0, i32 1
  %87 = load i32, i32* %86, align 4
  %88 = load i32, i32* %2, align 4
  %89 = add nsw i32 %88, 1
  %90 = sext i32 %89 to i64
  %91 = getelementptr inbounds [100 x %struct.laoren], [100 x %struct.laoren]* @lao, i64 0, i64 %90
  %92 = getelementptr inbounds %struct.laoren, %struct.laoren* %91, i32 0, i32 1
  %93 = load i32, i32* %92, align 4
  %94 = icmp slt i32 %87, %93
  br i1 %94, label %95, label %116

95:                                               ; preds = %82
  %96 = load i32, i32* %2, align 4
  %97 = sext i32 %96 to i64
  %98 = getelementptr inbounds [100 x %struct.laoren], [100 x %struct.laoren]* @lao, i64 0, i64 %97
  %99 = bitcast %struct.laoren* %5 to i8*
  %100 = bitcast %struct.laoren* %98 to i8*
  call void @llvm.memcpy.p0i8.p0i8.i64(i8* align 4 %99, i8* align 8 %100, i64 24, i1 false)
  %101 = load i32, i32* %2, align 4
  %102 = sext i32 %101 to i64
  %103 = getelementptr inbounds [100 x %struct.laoren], [100 x %struct.laoren]* @lao, i64 0, i64 %102
  %104 = load i32, i32* %2, align 4
  %105 = add nsw i32 %104, 1
  %106 = sext i32 %105 to i64
  %107 = getelementptr inbounds [100 x %struct.laoren], [100 x %struct.laoren]* @lao, i64 0, i64 %106
  %108 = bitcast %struct.laoren* %103 to i8*
  %109 = bitcast %struct.laoren* %107 to i8*
  call void @llvm.memcpy.p0i8.p0i8.i64(i8* align 8 %108, i8* align 8 %109, i64 24, i1 false)
  %110 = load i32, i32* %2, align 4
  %111 = add nsw i32 %110, 1
  %112 = sext i32 %111 to i64
  %113 = getelementptr inbounds [100 x %struct.laoren], [100 x %struct.laoren]* @lao, i64 0, i64 %112
  %114 = bitcast %struct.laoren* %113 to i8*
  %115 = bitcast %struct.laoren* %5 to i8*
  call void @llvm.memcpy.p0i8.p0i8.i64(i8* align 8 %114, i8* align 4 %115, i64 24, i1 false)
  br label %116

116:                                              ; preds = %95, %82
  br label %117

117:                                              ; preds = %116
  %118 = load i32, i32* %2, align 4
  %119 = add nsw i32 %118, 1
  store i32 %119, i32* %2, align 4
  br label %76

120:                                              ; preds = %76
  br label %121

121:                                              ; preds = %120
  %122 = load i32, i32* %4, align 4
  %123 = add nsw i32 %122, 1
  store i32 %123, i32* %4, align 4
  br label %71

124:                                              ; preds = %71
  store i32 0, i32* %2, align 4
  br label %125

125:                                              ; preds = %137, %124
  %126 = load i32, i32* %2, align 4
  %127 = load i32, i32* %3, align 4
  %128 = add nsw i32 %127, 1
  %129 = icmp slt i32 %126, %128
  br i1 %129, label %130, label %140

130:                                              ; preds = %125
  %131 = load i32, i32* %2, align 4
  %132 = sext i32 %131 to i64
  %133 = getelementptr inbounds [100 x %struct.laoren], [100 x %struct.laoren]* @lao, i64 0, i64 %132
  %134 = getelementptr inbounds %struct.laoren, %struct.laoren* %133, i32 0, i32 0
  %135 = getelementptr inbounds [20 x i8], [20 x i8]* %134, i64 0, i64 0
  %136 = call i32 (i8*, ...) @printf(i8* getelementptr inbounds ([4 x i8], [4 x i8]* @.str.2, i64 0, i64 0), i8* %135)
  br label %137

137:                                              ; preds = %130
  %138 = load i32, i32* %2, align 4
  %139 = add nsw i32 %138, 1
  store i32 %139, i32* %2, align 4
  br label %125

140:                                              ; preds = %125
  store i32 0, i32* %2, align 4
  br label %141

141:                                              ; preds = %161, %140
  %142 = load i32, i32* %2, align 4
  %143 = load i32, i32* %1, align 4
  %144 = icmp slt i32 %142, %143
  br i1 %144, label %145, label %164

145:                                              ; preds = %141
  %146 = load i32, i32* %2, align 4
  %147 = sext i32 %146 to i64
  %148 = getelementptr inbounds [100 x %struct.bingren], [100 x %struct.bingren]* @bing, i64 0, i64 %147
  %149 = getelementptr inbounds %struct.bingren, %struct.bingren* %148, i32 0, i32 1
  %150 = load i32, i32* %149, align 4
  %151 = icmp sge i32 %150, 0
  br i1 %151, label %152, label %159

152:                                              ; preds = %145
  %153 = load i32, i32* %2, align 4
  %154 = sext i32 %153 to i64
  %155 = getelementptr inbounds [100 x %struct.bingren], [100 x %struct.bingren]* @bing, i64 0, i64 %154
  %156 = getelementptr inbounds %struct.bingren, %struct.bingren* %155, i32 0, i32 0
  %157 = getelementptr inbounds [20 x i8], [20 x i8]* %156, i64 0, i64 0
  %158 = call i32 (i8*, ...) @printf(i8* getelementptr inbounds ([4 x i8], [4 x i8]* @.str.2, i64 0, i64 0), i8* %157)
  br label %160

159:                                              ; preds = %145
  br label %161

160:                                              ; preds = %152
  br label %161

161:                                              ; preds = %160, %159
  %162 = load i32, i32* %2, align 4
  %163 = add nsw i32 %162, 1
  store i32 %163, i32* %2, align 4
  br label %141

164:                                              ; preds = %141
  ret void
}

declare dso_local i32 @__isoc99_scanf(i8*, ...) #1

; Function Attrs: nounwind
declare dso_local i8* @strcpy(i8*, i8*) #2

; Function Attrs: argmemonly nounwind willreturn
declare void @llvm.memcpy.p0i8.p0i8.i64(i8* noalias nocapture writeonly, i8* noalias nocapture readonly, i64, i1 immarg) #3

declare dso_local i32 @printf(i8*, ...) #1


!llvm.module.flags = !{!0}
!llvm.ident = !{!1}

!0 = !{i32 1, !"wchar_size", i32 4}
!1 = !{!"clang version 10.0.0-4ubuntu1 "}
